; Function Attrs: norecurse nounwind uwtable
define internal void @_ZNK5faiss16ProductQuantizer13compute_codesEPKfPhm.omp_outlined(ptr noalias nocapture noundef readonly %0, ptr noalias nocapture readnone %1, ptr nocapture noundef nonnull readonly align 8 dereferenceable(8) %2, ptr noundef %3, ptr nocapture noundef nonnull readonly align 8 dereferenceable(8) %4, ptr nocapture noundef nonnull readonly align 8 dereferenceable(8) %5) #15 personality ptr @__gxx_personality_v0 {
  %7 = alloca i64, align 8
  %8 = alloca i64, align 8
  %9 = alloca i64, align 8
  %10 = alloca i32, align 4
  %11 = load i64, ptr %2, align 8
  %.not = icmp eq i64 %11, 0
  br i1 %.not, label %38, label %12

12:                                               ; preds = %6
  %13 = add i64 %11, -1
  store i64 0, ptr %7, align 8
  store i64 %13, ptr %8, align 8
  store i64 1, ptr %9, align 8
  store i32 0, ptr %10, align 4
  %14 = load i32, ptr %0, align 4
  call void @__kmpc_for_static_init_8u(ptr nonnull @1, i32 %14, i32 34, ptr nonnull %10, ptr nonnull %7, ptr nonnull %8, ptr nonnull %9, i64 1, i64 1)
  %15 = load i64, ptr %8, align 8
  %16 = call i64 @llvm.umin.i64(i64 %15, i64 %13)
  store i64 %16, ptr %8, align 8
  %17 = load i64, ptr %7, align 8
  %.not18 = icmp ugt i64 %17, %16
  br i1 %.not18, label %._crit_edge, label %.lr.ph

.lr.ph:                                           ; preds = %12
  %18 = getelementptr inbounds i8, ptr %3, i64 8
  %19 = getelementptr inbounds i8, ptr %3, i64 16
  %20 = getelementptr inbounds i8, ptr %3, i64 32
  br label %21

21:                                               ; preds = %.lr.ph, %_ZNK5faiss16ProductQuantizer12compute_codeEPKfPh.exit
  %.017 = phi i64 [ %17, %.lr.ph ], [ %34, %_ZNK5faiss16ProductQuantizer12compute_codeEPKfPh.exit ]
  %22 = load ptr, ptr %4, align 8
  %23 = load i64, ptr %18, align 8
  %24 = mul i64 %23, %.017
  %25 = getelementptr inbounds float, ptr %22, i64 %24
  %26 = load ptr, ptr %5, align 8
  %27 = load i64, ptr %19, align 8
  %28 = mul i64 %27, %.017
  %29 = getelementptr inbounds i8, ptr %26, i64 %28
  %30 = load i64, ptr %20, align 8
  switch i64 %30, label %33 [
    i64 8, label %31
    i64 16, label %32
  ]

31:                                               ; preds = %21
  invoke void @_ZN5faiss12compute_codeINS_10PQEncoder8EEEvRKNS_16ProductQuantizerEPKfPh(ptr noundef nonnull align 8 dereferenceable(208) %3, ptr noundef %25, ptr noundef %29)
          to label %_ZNK5faiss16ProductQuantizer12compute_codeEPKfPh.exit unwind label %39

32:                                               ; preds = %21
  invoke void @_ZN5faiss12compute_codeINS_11PQEncoder16EEEvRKNS_16ProductQuantizerEPKfPh(ptr noundef nonnull align 8 dereferenceable(208) %3, ptr noundef %25, ptr noundef %29)
          to label %_ZNK5faiss16ProductQuantizer12compute_codeEPKfPh.exit unwind label %39

33:                                               ; preds = %21
  invoke void @_ZN5faiss12compute_codeINS_16PQEncoderGenericEEEvRKNS_16ProductQuantizerEPKfPh(ptr noundef nonnull align 8 dereferenceable(208) %3, ptr noundef %25, ptr noundef %29)
          to label %_ZNK5faiss16ProductQuantizer12compute_codeEPKfPh.exit unwind label %39

_ZNK5faiss16ProductQuantizer12compute_codeEPKfPh.exit: ; preds = %31, %32, %33
  %34 = add nuw i64 %.017, 1
  %35 = load i64, ptr %8, align 8
  %36 = add i64 %35, 1
  %37 = icmp ult i64 %34, %36
  br i1 %37, label %21, label %._crit_edge

._crit_edge:                                      ; preds = %_ZNK5faiss16ProductQuantizer12compute_codeEPKfPh.exit, %12
  call void @__kmpc_for_static_fini(ptr nonnull @1, i32 %14)
  br label %38

38:                                               ; preds = %._crit_edge, %6
  ret void

39:                                               ; preds = %33, %32, %31
  %40 = landingpad { ptr, i32 }
          catch ptr null
  %41 = extractvalue { ptr, i32 } %40, 0
  call void @__clang_call_terminate(ptr %41) #26
  unreachable
}